; Function Attrs: nofree norecurse nosync nounwind memory(readwrite, inaccessiblemem: none) uwtable
define range(i32 0, -2147483648) i32 @Acb_ObjComputeLevelD(ptr noundef readonly captures(none) %0, i32 noundef %1) local_unnamed_addr #7 {
  %3 = getelementptr i8, ptr %0, i64 136
  %.val = load ptr, ptr %3, align 8, !tbaa !21
  %4 = getelementptr i8, ptr %0, i64 152
  %.val15 = load ptr, ptr %4, align 8, !tbaa !21
  %5 = sext i32 %1 to i64
  %6 = getelementptr inbounds i32, ptr %.val, i64 %5
  %7 = load i32, ptr %6, align 4, !tbaa !22
  %8 = sext i32 %7 to i64
  %9 = getelementptr inbounds i32, ptr %.val15, i64 %8
  %10 = load i32, ptr %9, align 4, !tbaa !22
  %11 = icmp sgt i32 %10, 0
  %12 = getelementptr i8, ptr %0, i64 360
  %.val16 = load ptr, ptr %12, align 8, !tbaa !21
  br i1 %11, label %.lr.ph, label %.critedge

.lr.ph:                                           ; preds = %2
  %wide.trip.count = zext nneg i32 %10 to i64
  br label %13

13:                                               ; preds = %.lr.ph, %13
  %indvars.iv = phi i64 [ 0, %.lr.ph ], [ %indvars.iv.next, %13 ]
  %.020 = phi i32 [ 0, %.lr.ph ], [ %19, %13 ]
  %indvars.iv.next = add nuw nsw i64 %indvars.iv, 1
  %14 = getelementptr inbounds nuw i32, ptr %9, i64 %indvars.iv.next
  %15 = load i32, ptr %14, align 4, !tbaa !22
  %16 = sext i32 %15 to i64
  %17 = getelementptr inbounds i32, ptr %.val16, i64 %16
  %18 = load i32, ptr %17, align 4, !tbaa !22
  %19 = tail call noundef i32 @llvm.smax.i32(i32 %.020, i32 %18)
  %exitcond.not = icmp eq i64 %indvars.iv.next, %wide.trip.count
  br i1 %exitcond.not, label %.critedge, label %13, !llvm.loop !92

.critedge:                                        ; preds = %13, %2
  %.0.lcssa = phi i32 [ 0, %2 ], [ %19, %13 ]
  %20 = getelementptr i8, ptr %0, i64 120
  %.val17 = load ptr, ptr %20, align 8, !tbaa !23
  %21 = getelementptr inbounds i8, ptr %.val17, i64 %5
  %22 = load i8, ptr %21, align 1, !tbaa !24
  %23 = add i8 %22, -5
  %narrow.i = icmp ult i8 %23, -2
  %24 = zext i1 %narrow.i to i32
  %25 = add nuw nsw i32 %.0.lcssa, %24
  %26 = getelementptr inbounds i32, ptr %.val16, i64 %5
  store i32 %25, ptr %26, align 4, !tbaa !22
  ret i32 %25
}